target datalayout = "e-m:e-p270:32:32-p271:32:32-p272:64:64-i64:64-i128:128-f80:128-n8:16:32:64-S128"
target triple = "x86_64-unknown-linux-gnu"

%"class.Assimp::XFileParser" = type { i32, i32, i8, i32, i32, ptr, ptr, i32, ptr }

; Function Attrs: mustprogress nounwind uwtable
define hidden void @_ZN6Assimp11XFileParser18ReadUntilEndOfLineEv(ptr noundef nonnull align 8 dereferenceable(56) %this) #0 align 2 {
entry:
  %this.addr = alloca ptr, align 8
  store ptr %this, ptr %this.addr, align 8
  %this1 = load ptr, ptr %this.addr, align 8
  %mIsBinaryFormat = getelementptr inbounds %"class.Assimp::XFileParser", ptr %this1, i32 0, i32 2
  %0 = load i8, ptr %mIsBinaryFormat, align 8
  %tobool = trunc i8 %0 to i1
  br i1 %tobool, label %if.then, label %if.end

if.then:                                          ; preds = %entry
  br label %while.end

if.end:                                           ; preds = %entry
  br label %while.cond

while.cond:                                       ; preds = %if.end9, %if.end
  %mP = getelementptr inbounds %"class.Assimp::XFileParser", ptr %this1, i32 0, i32 5
  %1 = load ptr, ptr %mP, align 8
  %mEnd = getelementptr inbounds %"class.Assimp::XFileParser", ptr %this1, i32 0, i32 6
  %2 = load ptr, ptr %mEnd, align 8
  %cmp = icmp ult ptr %1, %2
  br i1 %cmp, label %while.body, label %while.end

while.body:                                       ; preds = %while.cond
  %mP2 = getelementptr inbounds %"class.Assimp::XFileParser", ptr %this1, i32 0, i32 5
  %3 = load ptr, ptr %mP2, align 8
  %4 = load i8, ptr %3, align 1
  %conv = sext i8 %4 to i32
  %cmp3 = icmp eq i32 %conv, 10
  br i1 %cmp3, label %if.then7, label %lor.lhs.false

lor.lhs.false:                                    ; preds = %while.body
  %mP4 = getelementptr inbounds %"class.Assimp::XFileParser", ptr %this1, i32 0, i32 5
  %5 = load ptr, ptr %mP4, align 8
  %6 = load i8, ptr %5, align 1
  %conv5 = sext i8 %6 to i32
  %cmp6 = icmp eq i32 %conv5, 13
  br i1 %cmp6, label %if.then7, label %if.end9

if.then7:                                         ; preds = %lor.lhs.false, %while.body
  %mP8 = getelementptr inbounds %"class.Assimp::XFileParser", ptr %this1, i32 0, i32 5
  %7 = load ptr, ptr %mP8, align 8
  %incdec.ptr = getelementptr inbounds i8, ptr %7, i32 1
  store ptr %incdec.ptr, ptr %mP8, align 8
  %mLineNumber = getelementptr inbounds %"class.Assimp::XFileParser", ptr %this1, i32 0, i32 7
  %8 = load i32, ptr %mLineNumber, align 8
  %inc = add i32 %8, 1
  store i32 %inc, ptr %mLineNumber, align 8
  br label %while.end

if.end9:                                          ; preds = %lor.lhs.false
  %mP10 = getelementptr inbounds %"class.Assimp::XFileParser", ptr %this1, i32 0, i32 5
  %9 = load ptr, ptr %mP10, align 8
  %incdec.ptr11 = getelementptr inbounds i8, ptr %9, i32 1
  store ptr %incdec.ptr11, ptr %mP10, align 8
  br label %while.cond, !llvm.loop !7

while.end:                                        ; preds = %if.then7, %while.cond, %if.then
  ret void
}

; Function Attrs: mustprogress uwtable
define hidden void @_ZN6Assimp11XFileParser22FindNextNoneWhiteSpaceEv(ptr noundef nonnull align 8 dereferenceable(56) %this) #2 align 2 {
entry:
  %this.addr = alloca ptr, align 8
  %running = alloca i8, align 1
  store ptr %this, ptr %this.addr, align 8
  %this1 = load ptr, ptr %this.addr, align 8
  %mIsBinaryFormat = getelementptr inbounds %"class.Assimp::XFileParser", ptr %this1, i32 0, i32 2
  %0 = load i8, ptr %mIsBinaryFormat, align 8
  %tobool = trunc i8 %0 to i1
  br i1 %tobool, label %if.then, label %if.end

if.then:                                          ; preds = %entry
  br label %while.end31

if.end:                                           ; preds = %entry
  store i8 1, ptr %running, align 1
  br label %while.cond

while.cond:                                       ; preds = %if.end30, %if.end
  %1 = load i8, ptr %running, align 1
  %tobool2 = trunc i8 %1 to i1
  br i1 %tobool2, label %while.body, label %while.end31

while.body:                                       ; preds = %while.cond
  br label %while.cond3

while.cond3:                                      ; preds = %if.end11, %while.body
  %mP = getelementptr inbounds %"class.Assimp::XFileParser", ptr %this1, i32 0, i32 5
  %2 = load ptr, ptr %mP, align 8
  %mEnd = getelementptr inbounds %"class.Assimp::XFileParser", ptr %this1, i32 0, i32 6
  %3 = load ptr, ptr %mEnd, align 8
  %cmp = icmp ult ptr %2, %3
  br i1 %cmp, label %land.rhs, label %land.end

land.rhs:                                         ; preds = %while.cond3
  %mP4 = getelementptr inbounds %"class.Assimp::XFileParser", ptr %this1, i32 0, i32 5
  %4 = load ptr, ptr %mP4, align 8
  %5 = load i8, ptr %4, align 1
  %conv = zext i8 %5 to i32
  %call = call i32 @isspace(i32 noundef %conv) #17
  %tobool5 = icmp ne i32 %call, 0
  br label %land.end

land.end:                                         ; preds = %land.rhs, %while.cond3
  %6 = phi i1 [ false, %while.cond3 ], [ %tobool5, %land.rhs ]
  br i1 %6, label %while.body6, label %while.end

while.body6:                                      ; preds = %land.end
  %mP7 = getelementptr inbounds %"class.Assimp::XFileParser", ptr %this1, i32 0, i32 5
  %7 = load ptr, ptr %mP7, align 8
  %8 = load i8, ptr %7, align 1
  %conv8 = sext i8 %8 to i32
  %cmp9 = icmp eq i32 %conv8, 10
  br i1 %cmp9, label %if.then10, label %if.end11

if.then10:                                        ; preds = %while.body6
  %mLineNumber = getelementptr inbounds %"class.Assimp::XFileParser", ptr %this1, i32 0, i32 7
  %9 = load i32, ptr %mLineNumber, align 8
  %inc = add i32 %9, 1
  store i32 %inc, ptr %mLineNumber, align 8
  br label %if.end11

if.end11:                                         ; preds = %if.then10, %while.body6
  %mP12 = getelementptr inbounds %"class.Assimp::XFileParser", ptr %this1, i32 0, i32 5
  %10 = load ptr, ptr %mP12, align 8
  %incdec.ptr = getelementptr inbounds i8, ptr %10, i32 1
  store ptr %incdec.ptr, ptr %mP12, align 8
  br label %while.cond3, !llvm.loop !36

while.end:                                        ; preds = %land.end
  %mP13 = getelementptr inbounds %"class.Assimp::XFileParser", ptr %this1, i32 0, i32 5
  %11 = load ptr, ptr %mP13, align 8
  %mEnd14 = getelementptr inbounds %"class.Assimp::XFileParser", ptr %this1, i32 0, i32 6
  %12 = load ptr, ptr %mEnd14, align 8
  %cmp15 = icmp uge ptr %11, %12
  br i1 %cmp15, label %if.then16, label %if.end17

if.then16:                                        ; preds = %while.end
  br label %while.end31

if.end17:                                         ; preds = %while.end
  %mP18 = getelementptr inbounds %"class.Assimp::XFileParser", ptr %this1, i32 0, i32 5
  %13 = load ptr, ptr %mP18, align 8
  %arrayidx = getelementptr inbounds i8, ptr %13, i64 0
  %14 = load i8, ptr %arrayidx, align 1
  %conv19 = sext i8 %14 to i32
  %cmp20 = icmp eq i32 %conv19, 47
  br i1 %cmp20, label %land.lhs.true, label %lor.lhs.false

land.lhs.true:                                    ; preds = %if.end17
  %mP21 = getelementptr inbounds %"class.Assimp::XFileParser", ptr %this1, i32 0, i32 5
  %15 = load ptr, ptr %mP21, align 8
  %arrayidx22 = getelementptr inbounds i8, ptr %15, i64 1
  %16 = load i8, ptr %arrayidx22, align 1
  %conv23 = sext i8 %16 to i32
  %cmp24 = icmp eq i32 %conv23, 47
  br i1 %cmp24, label %if.then29, label %lor.lhs.false

lor.lhs.false:                                    ; preds = %land.lhs.true, %if.end17
  %mP25 = getelementptr inbounds %"class.Assimp::XFileParser", ptr %this1, i32 0, i32 5
  %17 = load ptr, ptr %mP25, align 8
  %arrayidx26 = getelementptr inbounds i8, ptr %17, i64 0
  %18 = load i8, ptr %arrayidx26, align 1
  %conv27 = sext i8 %18 to i32
  %cmp28 = icmp eq i32 %conv27, 35
  br i1 %cmp28, label %if.then29, label %if.else

if.then29:                                        ; preds = %lor.lhs.false, %land.lhs.true
  call void @_ZN6Assimp11XFileParser18ReadUntilEndOfLineEv(ptr noundef nonnull align 8 dereferenceable(56) %this1)
  br label %if.end30

if.else:                                          ; preds = %lor.lhs.false
  br label %while.end31

if.end30:                                         ; preds = %if.then29
  br label %while.cond, !llvm.loop !37

while.end31:                                      ; preds = %if.else, %if.then16, %while.cond, %if.then
  ret void
}

; Function Attrs: mustprogress uwtable
define hidden void @_ZN6Assimp11XFileParser16TestForSeparatorEv(ptr noundef nonnull align 8 dereferenceable(56) %this) #2 align 2 {
entry:
  %this.addr = alloca ptr, align 8
  store ptr %this, ptr %this.addr, align 8
  %this1 = load ptr, ptr %this.addr, align 8
  %mIsBinaryFormat = getelementptr inbounds %"class.Assimp::XFileParser", ptr %this1, i32 0, i32 2
  %0 = load i8, ptr %mIsBinaryFormat, align 8
  %tobool = trunc i8 %0 to i1
  br i1 %tobool, label %if.then, label %if.end

if.then:                                          ; preds = %entry
  br label %if.end11

if.end:                                           ; preds = %entry
  call void @_ZN6Assimp11XFileParser22FindNextNoneWhiteSpaceEv(ptr noundef nonnull align 8 dereferenceable(56) %this1)
  %mP = getelementptr inbounds %"class.Assimp::XFileParser", ptr %this1, i32 0, i32 5
  %1 = load ptr, ptr %mP, align 8
  %mEnd = getelementptr inbounds %"class.Assimp::XFileParser", ptr %this1, i32 0, i32 6
  %2 = load ptr, ptr %mEnd, align 8
  %cmp = icmp uge ptr %1, %2
  br i1 %cmp, label %if.then2, label %if.end3

if.then2:                                         ; preds = %if.end
  br label %if.end11

if.end3:                                          ; preds = %if.end
  %mP4 = getelementptr inbounds %"class.Assimp::XFileParser", ptr %this1, i32 0, i32 5
  %3 = load ptr, ptr %mP4, align 8
  %4 = load i8, ptr %3, align 1
  %conv = sext i8 %4 to i32
  %cmp5 = icmp eq i32 %conv, 59
  br i1 %cmp5, label %if.then9, label %lor.lhs.false

lor.lhs.false:                                    ; preds = %if.end3
  %mP6 = getelementptr inbounds %"class.Assimp::XFileParser", ptr %this1, i32 0, i32 5
  %5 = load ptr, ptr %mP6, align 8
  %6 = load i8, ptr %5, align 1
  %conv7 = sext i8 %6 to i32
  %cmp8 = icmp eq i32 %conv7, 44
  br i1 %cmp8, label %if.then9, label %if.end11

if.then9:                                         ; preds = %lor.lhs.false, %if.end3
  %mP10 = getelementptr inbounds %"class.Assimp::XFileParser", ptr %this1, i32 0, i32 5
  %7 = load ptr, ptr %mP10, align 8
  %incdec.ptr = getelementptr inbounds i8, ptr %7, i32 1
  store ptr %incdec.ptr, ptr %mP10, align 8
  br label %if.end11

if.end11:                                         ; preds = %if.then9, %lor.lhs.false, %if.then2, %if.then
  ret void
}