; Function Attrs: mustprogress nofree nounwind memory(read, argmem: readwrite) uwtable
define hidden void @_ZN6Assimp11XFileParser16TestForSeparatorEv(ptr nocapture noundef nonnull align 8 dereferenceable(56) %this) local_unnamed_addr #11 align 2 {
entry:
  %mIsBinaryFormat = getelementptr inbounds i8, ptr %this, i64 8
  %0 = load i8, ptr %mIsBinaryFormat, align 8
  %1 = and i8 %0, 1
  %tobool.not = icmp eq i8 %1, 0
  br i1 %tobool.not, label %while.cond.preheader.i, label %if.end11

while.cond.preheader.i:                           ; preds = %entry
  %mP.i = getelementptr inbounds i8, ptr %this, i64 24
  %mEnd.i = getelementptr inbounds i8, ptr %this, i64 32
  %2 = load ptr, ptr %mEnd.i, align 8
  %mP.promoted11.i = load ptr, ptr %mP.i, align 8
  %cmp1016.i = icmp ult ptr %mP.promoted11.i, %2
  br i1 %cmp1016.i, label %land.rhs.lr.ph.lr.ph.i, label %_ZN6Assimp11XFileParser22FindNextNoneWhiteSpaceEv.exit

land.rhs.lr.ph.lr.ph.i:                           ; preds = %while.cond.preheader.i
  %mLineNumber.i = getelementptr inbounds i8, ptr %this, i64 40
  %mLineNumber.promoted18.i = load i32, ptr %mLineNumber.i, align 8
  br label %land.rhs.i

land.rhs.i:                                       ; preds = %land.rhs.i.backedge, %land.rhs.lr.ph.lr.ph.i
  %mLineNumber.promoted21.i = phi i32 [ %mLineNumber.promoted18.i, %land.rhs.lr.ph.lr.ph.i ], [ %mLineNumber.promoted21.i.be, %land.rhs.i.backedge ]
  %incdec.ptr.i13.i = phi ptr [ %mP.promoted11.i, %land.rhs.lr.ph.lr.ph.i ], [ %incdec.ptr.i13.i.be, %land.rhs.i.backedge ]
  %3 = phi i32 [ %mLineNumber.promoted18.i, %land.rhs.lr.ph.lr.ph.i ], [ %.be, %land.rhs.i.backedge ]
  %4 = load i8, ptr %incdec.ptr.i13.i, align 1
  %conv.i = zext i8 %4 to i32
  %call.i = tail call i32 @isspace(i32 noundef %conv.i) #22
  %tobool5.not.i = icmp eq i32 %call.i, 0
  br i1 %tobool5.not.i, label %if.end17.i, label %while.body6.i

while.body6.i:                                    ; preds = %land.rhs.i
  %cmp9.i = icmp eq i8 %4, 10
  br i1 %cmp9.i, label %if.then10.i, label %if.end11.i

if.then10.i:                                      ; preds = %while.body6.i
  %inc.i = add i32 %3, 1
  store i32 %inc.i, ptr %mLineNumber.i, align 8
  br label %if.end11.i

if.end11.i:                                       ; preds = %if.then10.i, %while.body6.i
  %mLineNumber.promoted19.i = phi i32 [ %inc.i, %if.then10.i ], [ %mLineNumber.promoted21.i, %while.body6.i ]
  %5 = phi i32 [ %inc.i, %if.then10.i ], [ %3, %while.body6.i ]
  %incdec.ptr.i = getelementptr inbounds i8, ptr %incdec.ptr.i13.i, i64 1
  store ptr %incdec.ptr.i, ptr %mP.i, align 8
  %cmp.i = icmp ult ptr %incdec.ptr.i, %2
  br i1 %cmp.i, label %land.rhs.i.backedge, label %_ZN6Assimp11XFileParser22FindNextNoneWhiteSpaceEv.exit

land.rhs.i.backedge:                              ; preds = %if.end11.i, %_ZN6Assimp11XFileParser18ReadUntilEndOfLineEv.exit.i
  %mLineNumber.promoted21.i.be = phi i32 [ %mLineNumber.promoted19.i, %if.end11.i ], [ %inc.i.i, %_ZN6Assimp11XFileParser18ReadUntilEndOfLineEv.exit.i ]
  %incdec.ptr.i13.i.be = phi ptr [ %incdec.ptr.i, %if.end11.i ], [ %incdec.ptr.i.i, %_ZN6Assimp11XFileParser18ReadUntilEndOfLineEv.exit.i ]
  %.be = phi i32 [ %5, %if.end11.i ], [ %inc.i.i, %_ZN6Assimp11XFileParser18ReadUntilEndOfLineEv.exit.i ]
  br label %land.rhs.i, !llvm.loop !14

if.end17.i:                                       ; preds = %land.rhs.i
  switch i8 %4, label %_ZN6Assimp11XFileParser22FindNextNoneWhiteSpaceEv.exit [
    i8 47, label %land.lhs.true.i
    i8 35, label %while.body.i.i.preheader
  ]

land.lhs.true.i:                                  ; preds = %if.end17.i
  %arrayidx22.i = getelementptr inbounds i8, ptr %incdec.ptr.i13.i, i64 1
  %6 = load i8, ptr %arrayidx22.i, align 1
  %cmp24.i = icmp eq i8 %6, 47
  br i1 %cmp24.i, label %while.body.i.i.preheader, label %_ZN6Assimp11XFileParser22FindNextNoneWhiteSpaceEv.exit

while.body.i.i.preheader:                         ; preds = %land.lhs.true.i, %if.end17.i
  br label %while.body.i.i

while.body.i.i:                                   ; preds = %while.body.i.i.preheader, %if.end9.i.i
  %7 = phi ptr [ %incdec.ptr11.i.i, %if.end9.i.i ], [ %incdec.ptr.i13.i, %while.body.i.i.preheader ]
  %8 = load i8, ptr %7, align 1
  switch i8 %8, label %if.end9.i.i [
    i8 10, label %_ZN6Assimp11XFileParser18ReadUntilEndOfLineEv.exit.i
    i8 13, label %_ZN6Assimp11XFileParser18ReadUntilEndOfLineEv.exit.i
  ]

if.end9.i.i:                                      ; preds = %while.body.i.i
  %incdec.ptr11.i.i = getelementptr inbounds i8, ptr %7, i64 1
  store ptr %incdec.ptr11.i.i, ptr %mP.i, align 8
  %exitcond.not.i.i = icmp eq ptr %incdec.ptr11.i.i, %2
  br i1 %exitcond.not.i.i, label %if.end11, label %while.body.i.i, !llvm.loop !7

_ZN6Assimp11XFileParser18ReadUntilEndOfLineEv.exit.i: ; preds = %while.body.i.i, %while.body.i.i
  %incdec.ptr.i.i = getelementptr inbounds i8, ptr %7, i64 1
  store ptr %incdec.ptr.i.i, ptr %mP.i, align 8
  %inc.i.i = add i32 %mLineNumber.promoted21.i, 1
  store i32 %inc.i.i, ptr %mLineNumber.i, align 8
  %cmp10.i = icmp ult ptr %incdec.ptr.i.i, %2
  br i1 %cmp10.i, label %land.rhs.i.backedge, label %_ZN6Assimp11XFileParser22FindNextNoneWhiteSpaceEv.exit

_ZN6Assimp11XFileParser22FindNextNoneWhiteSpaceEv.exit: ; preds = %if.end17.i, %land.lhs.true.i, %_ZN6Assimp11XFileParser18ReadUntilEndOfLineEv.exit.i, %if.end11.i, %while.cond.preheader.i
  %9 = phi ptr [ %mP.promoted11.i, %while.cond.preheader.i ], [ %incdec.ptr.i13.i, %if.end17.i ], [ %incdec.ptr.i13.i, %land.lhs.true.i ], [ %incdec.ptr.i.i, %_ZN6Assimp11XFileParser18ReadUntilEndOfLineEv.exit.i ], [ %incdec.ptr.i, %if.end11.i ]
  %cmp.not = icmp ult ptr %9, %2
  br i1 %cmp.not, label %if.end3, label %if.end11

if.end3:                                          ; preds = %_ZN6Assimp11XFileParser22FindNextNoneWhiteSpaceEv.exit
  %10 = load i8, ptr %9, align 1
  switch i8 %10, label %if.end11 [
    i8 59, label %if.then9
    i8 44, label %if.then9
  ]

if.then9:                                         ; preds = %if.end3, %if.end3
  %incdec.ptr = getelementptr inbounds i8, ptr %9, i64 1
  store ptr %incdec.ptr, ptr %mP.i, align 8
  br label %if.end11

if.end11:                                         ; preds = %if.end9.i.i, %if.end3, %_ZN6Assimp11XFileParser22FindNextNoneWhiteSpaceEv.exit, %entry, %if.then9
  ret void
}